target datalayout = "e-m:e-p270:32:32-p271:32:32-p272:64:64-i64:64-i128:128-f80:128-n8:16:32:64-S128"
target triple = "x86_64-pc-linux-gnu"

%struct.AVFilterContext = type { ptr, ptr, ptr, ptr, ptr, i32, ptr, ptr, i32, ptr, ptr, i32, i32, ptr, ptr, ptr, ptr, i32, ptr, i32, i32 }
%struct.AVFilterFormatsConfig = type { ptr, ptr, ptr, ptr, ptr }
%struct.AVFilterLink = type { ptr, ptr, ptr, ptr, i32, i32, i32, i32, %struct.AVRational, i32, i32, i32, %struct.AVChannelLayout, %struct.AVRational, ptr, i32, %struct.AVFilterFormatsConfig, %struct.AVFilterFormatsConfig }
%struct.AVChannelLayout = type { i32, i32, %union.anon.2, ptr }
%union.anon.2 = type { i64 }
%struct.AVRational = type { i32, i32 }

; Function Attrs: nounwind uwtable
define internal ptr @get_audio_buffer(ptr noundef %0, i32 noundef %1) #1 {
  %3 = alloca ptr, align 8
  %4 = alloca i32, align 4
  %5 = alloca ptr, align 8
  %6 = alloca i32, align 4
  %7 = alloca ptr, align 8
  store ptr %0, ptr %3, align 8, !tbaa !57
  store i32 %1, ptr %4, align 4, !tbaa !24
  call void @llvm.lifetime.start.p0(i64 8, ptr %5) #9
  %8 = load ptr, ptr %3, align 8, !tbaa !57
  %9 = getelementptr inbounds nuw %struct.AVFilterLink, ptr %8, i32 0, i32 2
  %10 = load ptr, ptr %9, align 8, !tbaa !73
  store ptr %10, ptr %5, align 8, !tbaa !4
  call void @llvm.lifetime.start.p0(i64 4, ptr %6) #9
  %11 = load ptr, ptr %3, align 8, !tbaa !57
  %12 = getelementptr inbounds nuw %struct.AVFilterLink, ptr %11, i32 0, i32 3
  %13 = load ptr, ptr %12, align 8, !tbaa !79
  %14 = load ptr, ptr %3, align 8, !tbaa !57
  %15 = getelementptr inbounds nuw %struct.AVFilterLink, ptr %14, i32 0, i32 2
  %16 = load ptr, ptr %15, align 8, !tbaa !73
  %17 = getelementptr inbounds nuw %struct.AVFilterContext, ptr %16, i32 0, i32 3
  %18 = load ptr, ptr %17, align 8, !tbaa !80
  %19 = ptrtoint ptr %13 to i64
  %20 = ptrtoint ptr %18 to i64
  %21 = sub i64 %19, %20
  %22 = sdiv exact i64 %21, 48
  %23 = trunc i64 %22 to i32
  store i32 %23, ptr %6, align 4, !tbaa !24
  call void @llvm.lifetime.start.p0(i64 8, ptr %7) #9
  %24 = load ptr, ptr %5, align 8, !tbaa !4
  %25 = getelementptr inbounds nuw %struct.AVFilterContext, ptr %24, i32 0, i32 7
  %26 = load ptr, ptr %25, align 8, !tbaa !56
  %27 = load i32, ptr %6, align 4, !tbaa !24
  %28 = load ptr, ptr %5, align 8, !tbaa !4
  %29 = getelementptr inbounds nuw %struct.AVFilterContext, ptr %28, i32 0, i32 8
  %30 = load i32, ptr %29, align 8, !tbaa !42
  %31 = urem i32 %27, %30
  %32 = zext i32 %31 to i64
  %33 = getelementptr inbounds nuw ptr, ptr %26, i64 %32
  %34 = load ptr, ptr %33, align 8, !tbaa !57
  store ptr %34, ptr %7, align 8, !tbaa !57
  %35 = load ptr, ptr %7, align 8, !tbaa !57
  %36 = load i32, ptr %4, align 4, !tbaa !24
  %37 = call ptr @ff_get_audio_buffer(ptr noundef %35, i32 noundef %36)
  call void @llvm.lifetime.end.p0(i64 8, ptr %7) #9
  call void @llvm.lifetime.end.p0(i64 4, ptr %6) #9
  call void @llvm.lifetime.end.p0(i64 8, ptr %5) #9
  ret ptr %37
}