; Function Attrs: nounwind uwtable
define internal ptr @get_audio_buffer(ptr noundef readonly captures(none) %0, i32 noundef %1) #1 {
  %3 = getelementptr inbounds nuw i8, ptr %0, i64 16
  %4 = load ptr, ptr %3, align 8, !tbaa !63
  %5 = getelementptr inbounds nuw i8, ptr %0, i64 24
  %6 = load ptr, ptr %5, align 8, !tbaa !72
  %7 = getelementptr inbounds nuw i8, ptr %4, i64 24
  %8 = load ptr, ptr %7, align 8, !tbaa !57
  %9 = ptrtoint ptr %6 to i64
  %10 = ptrtoint ptr %8 to i64
  %11 = sub i64 %9, %10
  %12 = sdiv exact i64 %11, 48
  %13 = trunc i64 %12 to i32
  %14 = getelementptr inbounds nuw i8, ptr %4, i64 56
  %15 = load ptr, ptr %14, align 8, !tbaa !45
  %16 = getelementptr inbounds nuw i8, ptr %4, i64 64
  %17 = load i32, ptr %16, align 8, !tbaa !38
  %18 = urem i32 %13, %17
  %19 = zext i32 %18 to i64
  %20 = getelementptr inbounds nuw ptr, ptr %15, i64 %19
  %21 = load ptr, ptr %20, align 8, !tbaa !46
  %22 = tail call ptr @ff_get_audio_buffer(ptr noundef %21, i32 noundef %1) #8
  ret ptr %22
}